; Function Attrs: nounwind uwtable
define ptr @lv_draw_buf_dup_ex(ptr noundef %0, ptr noundef readonly captures(none) %1) local_unnamed_addr #0 {
  %3 = load i64, ptr %1, align 4
  %4 = lshr i64 %3, 32
  %5 = trunc nuw i64 %4 to i32
  %6 = and i32 %5, 65535
  %7 = lshr i64 %3, 48
  %8 = trunc nuw nsw i64 %7 to i32
  %9 = trunc i64 %3 to i32
  %10 = lshr i32 %9, 8
  %11 = and i32 %10, 255
  %12 = getelementptr inbounds nuw i8, ptr %1, i64 8
  %13 = load i32, ptr %12, align 4
  %14 = and i32 %13, 65535
  %15 = tail call ptr @lv_draw_buf_create_ex(ptr noundef %0, i32 noundef %6, i32 noundef %8, i32 noundef %11, i32 noundef %14)
  %16 = icmp eq ptr %15, null
  br i1 %16, label %34, label %17

17:                                               ; preds = %2
  %18 = load i64, ptr %1, align 8
  %19 = load i64, ptr %15, align 8
  %20 = and i64 %19, -4294901761
  %21 = and i64 %18, 4291756032
  %22 = or disjoint i64 %21, %20
  %23 = or disjoint i64 %22, 3145728
  store i64 %23, ptr %15, align 8
  %24 = getelementptr inbounds nuw i8, ptr %1, i64 12
  %25 = load i32, ptr %24, align 4, !tbaa !29
  %26 = getelementptr inbounds nuw i8, ptr %15, i64 12
  %27 = load i32, ptr %26, align 4, !tbaa !29
  %. = tail call i32 @llvm.umin.i32(i32 %25, i32 %27)
  %28 = getelementptr inbounds nuw i8, ptr %15, i64 16
  %29 = load ptr, ptr %28, align 8, !tbaa !19
  %30 = getelementptr inbounds nuw i8, ptr %1, i64 16
  %31 = load ptr, ptr %30, align 8, !tbaa !19
  %32 = zext i32 %. to i64
  %33 = tail call ptr @lv_memcpy(ptr noundef %29, ptr noundef %31, i64 noundef %32) #9
  br label %34

34:                                               ; preds = %2, %17
  ret ptr %15
}